(dp0
cnumpy.core.multiarray
scalar
p1
(cnumpy
dtype
p2
(S'i8'
p3
I0
I1
tp4
Rp5
(I3
S'<'
p6
NNNI-1
I-1
I0
tp7
bS'\x00\x00\x00\x00\x00\x00\x00\x00'
p8
tp9
Rp10
(dp11
S'to_messages'
p12
F0.0
sS'from_messages'
p13
F0.0
sS'other'
p14
F0.0
sS'from_this_person_to_poi'
p15
F0.0004268811557245605
sS'poi'
p16
I00
ssg1
(g5
S'\x01\x00\x00\x00\x00\x00\x00\x00'
p17
tp18
Rp19
(dp20
g12
F0.0
sg13
F0.0
sg14
F0.0
sg15
F0.0
sg16
I00
ssg1
(g5
S'\x02\x00\x00\x00\x00\x00\x00\x00'
p21
tp22
Rp23
(dp24
g12
F0.2178598922247883
sg13
F0.0
sg14
F0.20138888888888887
sg15
F0.0
sg16
I00
ssg1
(g5
S'\x03\x00\x00\x00\x00\x00\x00\x00'
p25
tp26
Rp27
(dp28
g12
F0.0
sg13
F0.0
sg14
F0.0
sg15
F0.0
sg16
I00
ssg1
(g5
S'\x04\x00\x00\x00\x00\x00\x00\x00'
p29
tp30
Rp31
(dp32
g12
F0.0
sg13
F0.0
sg14
F0.0
sg15
F0.00019378157726970181
sg16
I00
ssg1
(g5
S'\x05\x00\x00\x00\x00\x00\x00\x00'
p33
tp34
Rp35
(dp36
g12
F0.0
sg13
F0.0
sg14
F0.0
sg15
F0.002454566645416223
sg16
I00
ssg1
(g5
S'\x06\x00\x00\x00\x00\x00\x00\x00'
p37
tp38
Rp39
(dp40
g12
F0.0
sg13
F0.0
sg14
F0.0
sg15
F0.0015895706193427715
sg16
I00
ssg1
(g5
S'\x07\x00\x00\x00\x00\x00\x00\x00'
p41
tp42
Rp43
(dp44
g12
F0.0
sg13
F0.0
sg14
F0.0
sg15
F0.591730300979299
sg16
I01
ssg1
(g5
S'\x08\x00\x00\x00\x00\x00\x00\x00'
p45
tp46
Rp47
(dp48
g12
F0.0
sg13
F0.0
sg14
F0.0
sg15
F0.0
sg16
I00
ssg1
(g5
S'\t\x00\x00\x00\x00\x00\x00\x00'
p49
tp50
Rp51
(dp52
g12
F0.0
sg13
F0.0
sg14
F0.0
sg15
F0.0
sg16
I00
ssg1
(g5
S'\n\x00\x00\x00\x00\x00\x00\x00'
p53
tp54
Rp55
(dp56
g12
F0.14742109314857582
sg13
F0.0
sg14
F0.4097222222222222
sg15
F0.0
sg16
I00
ssg1
(g5
S'\x0b\x00\x00\x00\x00\x00\x00\x00'
p57
tp58
Rp59
(dp60
g12
F0.20130869899923015
sg13
F0.041666666666666664
sg14
F0.20138888888888887
sg15
F0.3871812082421764
sg16
I00
ssg1
(g5
S'\x0c\x00\x00\x00\x00\x00\x00\x00'
p61
tp62
Rp63
(dp64
g12
F0.6185527328714395
sg13
F0.3333333333333333
sg14
F0.2777777777777778
sg15
F0.0
sg16
I00
ssg1
(g5
S'\r\x00\x00\x00\x00\x00\x00\x00'
p65
tp66
Rp67
(dp68
g12
F0.9526558891454965
sg13
F0.08333333333333333
sg14
F0.09722222222222221
sg15
F0.0007638925944544767
sg16
I00
ssg1
(g5
S'\x0e\x00\x00\x00\x00\x00\x00\x00'
p69
tp70
Rp71
(dp72
g12
F0.0
sg13
F0.0
sg14
F0.0
sg15
F0.0
sg16
I00
ssg1
(g5
S'\x0f\x00\x00\x00\x00\x00\x00\x00'
p73
tp74
Rp75
(dp76
g12
F0.7151655119322555
sg13
F0.625
sg14
F0.1875
sg15
F0.004552462851509951
sg16
I01
ssg1
(g5
S'\x10\x00\x00\x00\x00\x00\x00\x00'
p77
tp78
Rp79
(dp80
g12
F0.5719784449576597
sg13
F0.041666666666666664
sg14
F0.2847222222222222
sg15
F0.0
sg16
I00
ssg1
(g5
S'\x11\x00\x00\x00\x00\x00\x00\x00'
p81
tp82
Rp83
(dp84
g12
F0.41878367975365666
sg13
F0.0
sg14
F0.8680555555555555
sg15
F0.0034122408171404018
sg16
I00
ssg1
(g5
S'\x12\x00\x00\x00\x00\x00\x00\x00'
p85
tp86
Rp87
(dp88
g12
F0.0
sg13
F0.0
sg14
F0.0
sg15
F0.4231066276107855
sg16
I00
ssg1
(g5
S'\x13\x00\x00\x00\x00\x00\x00\x00'
p89
tp90
Rp91
(dp92
g12
F0.0
sg13
F0.0
sg14
F0.0
sg15
F0.0
sg16
I00
ssg1
(g5
S'\x14\x00\x00\x00\x00\x00\x00\x00'
p93
tp94
Rp95
(dp96
g12
F0.9999999999999999
sg13
F0.0
sg14
F1.0
sg15
F0.0013648963268561606
sg16
I01
ssg1
(g5
S'\x15\x00\x00\x00\x00\x00\x00\x00'
p97
tp98
Rp99
(dp100
g12
F0.12009237875288682
sg13
F0.29166666666666663
sg14
F0.10416666666666666
sg15
F0.001516551474284623
sg16
I00
ssg1
(g5
S'\x16\x00\x00\x00\x00\x00\x00\x00'
p101
tp102
Rp103
(dp104
g12
F0.7282525019245573
sg13
F0.5
sg14
F0.34027777777777773
sg15
F0.864701141064563
sg16
I01
ssg1
(g5
S'\x17\x00\x00\x00\x00\x00\x00\x00'
p105
tp106
Rp107
(dp108
g12
F0.0
sg13
F0.0
sg14
F0.0
sg15
F0.0
sg16
I00
ssg1
(g5
S'\x18\x00\x00\x00\x00\x00\x00\x00'
p109
tp110
Rp111
(dp112
g12
F0.0
sg13
F0.0
sg14
F0.0
sg15
F0.0
sg16
I00
ssg1
(g5
S'\x19\x00\x00\x00\x00\x00\x00\x00'
p113
tp114
Rp115
(dp116
g12
F0.0
sg13
F0.0
sg14
F0.0
sg15
F0.0
sg16
I00
ssg1
(g5
S'\x1a\x00\x00\x00\x00\x00\x00\x00'
p117
tp118
Rp119
(dp120
g12
F0.6766743648960739
sg13
F0.4583333333333333
sg14
F0.2777777777777778
sg15
F0.2857295314698473
sg16
I01
ssg1
(g5
S'\x1b\x00\x00\x00\x00\x00\x00\x00'
p121
tp122
Rp123
(dp124
g12
F0.294072363356428
sg13
F0.0
sg14
F0.08333333333333333
sg15
F0.0
sg16
I00
ssg1
(g5
S'\x1c\x00\x00\x00\x00\x00\x00\x00'
p125
tp126
Rp127
(dp128
g12
F0.039260969976905306
sg13
F0.16666666666666666
sg14
F0.22916666666666666
sg15
F0.0013873637561048217
sg16
I00
ssg1
(g5
S'\x1d\x00\x00\x00\x00\x00\x00\x00'
p129
tp130
Rp131
(dp132
g12
F0.0
sg13
F0.0
sg14
F0.0
sg15
F0.002002409631786919
sg16
I00
ssg1
(g5
S'\x1e\x00\x00\x00\x00\x00\x00\x00'
p133
tp134
Rp135
(dp136
g12
F0.27482678983833714
sg13
F0.16666666666666666
sg14
F0.5138888888888888
sg15
F0.07176377744887957
sg16
I00
ssg1
(g5
S'\x1f\x00\x00\x00\x00\x00\x00\x00'
p137
tp138
Rp139
(dp140
g12
F0.0
sg13
F0.0
sg14
F0.0
sg15
F0.004664799997753257
sg16
I01
ssg1
(g5
S' \x00\x00\x00\x00\x00\x00\x00'
p141
tp142
Rp143
(dp144
g12
F0.8394919168591224
sg13
F0.8333333333333333
sg14
F0.0
sg15
F0.021012663204810277
sg16
I00
ssg1
(g5
S'!\x00\x00\x00\x00\x00\x00\x00'
p145
tp146
Rp147
(dp148
g12
F0.0
sg13
F0.0
sg14
F0.0
sg15
F0.003103313664971312
sg16
I00
ssg1
(g5
S'"\x00\x00\x00\x00\x00\x00\x00'
p149
tp150
Rp151
(dp152
g12
F0.9899923017705927
sg13
F0.5833333333333333
sg14
F0.4375
sg15
F0.0013283867543270864
sg16
I00
ssg1
(g5
S'#\x00\x00\x00\x00\x00\x00\x00'
p153
tp154
Rp155
(dp156
g12
F0.0
sg13
F0.0
sg14
F0.0
sg15
F0.0
sg16
I00
ssg1
(g5
S'$\x00\x00\x00\x00\x00\x00\x00'
p157
tp158
Rp159
(dp160
g12
F0.06774441878367975
sg13
F0.125
sg14
F0.09722222222222221
sg15
F0.0021737237798079598
sg16
I00
ssg1
(g5
S'%\x00\x00\x00\x00\x00\x00\x00'
p161
tp162
Rp163
(dp164
g12
F0.3329484218629715
sg13
F0.4583333333333333
sg14
F0.15277777777777776
sg15
F0.0025023099325696277
sg16
I00
ssg1
(g5
S'&\x00\x00\x00\x00\x00\x00\x00'
p165
tp166
Rp167
(dp168
g12
F0.0
sg13
F0.0
sg14
F0.0
sg15
F0.0
sg16
I00
ssg1
(g5
S"'\x00\x00\x00\x00\x00\x00\x00"
p169
tp170
Rp171
(dp172
g12
F0.34795996920708233
sg13
F0.125
sg14
F0.08333333333333333
sg15
F0.004403616132737572
sg16
I00
ssg1
(g5
S'(\x00\x00\x00\x00\x00\x00\x00'
p173
tp174
Rp175
(dp176
g12
F0.0
sg13
F0.0
sg14
F0.0
sg15
F0.1510232509808437
sg16
I00
ssg1
(g5
S')\x00\x00\x00\x00\x00\x00\x00'
p177
tp178
Rp179
(dp180
g12
F0.0
sg13
F0.0
sg14
F0.0
sg15
F0.03640004381148703
sg16
I00
ssg1
(g5
S'*\x00\x00\x00\x00\x00\x00\x00'
p181
tp182
Rp183
(dp184
g12
F0.6755196304849884
sg13
F0.0
sg14
F0.5208333333333333
sg15
F0.0
sg16
I00
ssg1
(g5
S'+\x00\x00\x00\x00\x00\x00\x00'
p185
tp186
Rp187
(dp188
g12
F0.0
sg13
F0.0
sg14
F0.0
sg15
F0.7792378486313123
sg16
I01
ssg1
(g5
S',\x00\x00\x00\x00\x00\x00\x00'
p189
tp190
Rp191
(dp192
g12
F0.3602771362586605
sg13
F0.3333333333333333
sg14
F0.1111111111111111
sg15
F0.8015648564471692
sg16
I00
ssg1
(g5
S'-\x00\x00\x00\x00\x00\x00\x00'
p193
tp194
Rp195
(dp196
g12
F0.19899923017705926
sg13
F0.0
sg14
F0.25
sg15
F0.0
sg16
I00
ssg1
(g5
S'.\x00\x00\x00\x00\x00\x00\x00'
p197
tp198
Rp199
(dp200
g12
F0.021939953810623556
sg13
F0.0
sg14
F0.09027777777777778
sg15
F0.0
sg16
I00
ssg1
(g5
S'/\x00\x00\x00\x00\x00\x00\x00'
p201
tp202
Rp203
(dp204
g12
F0.0
sg13
F0.25
sg14
F0.14583333333333331
sg15
F0.0
sg16
I00
ssg1
(g5
S'0\x00\x00\x00\x00\x00\x00\x00'
p205
tp206
Rp207
(dp208
g12
F0.0
sg13
F0.0
sg14
F0.0
sg15
F0.0
sg16
I00
ssg1
(g5
S'1\x00\x00\x00\x00\x00\x00\x00'
p209
tp210
Rp211
(dp212
g12
F0.0
sg13
F0.0
sg14
F0.0
sg15
F0.21497678833715747
sg16
I00
ssg1
(g5
S'2\x00\x00\x00\x00\x00\x00\x00'
p213
tp214
Rp215
(dp216
g12
F0.0804464973056197
sg13
F0.0
sg14
F0.3055555555555555
sg15
F0.17079178029100936
sg16
I00
ssg1
(g5
S'3\x00\x00\x00\x00\x00\x00\x00'
p217
tp218
Rp219
(dp220
g12
F0.0
sg13
F0.0
sg14
F0.0
sg15
F0.0
sg16
I00
ssg1
(g5
S'4\x00\x00\x00\x00\x00\x00\x00'
p221
tp222
Rp223
(dp224
g12
F0.06505003849114703
sg13
F0.0
sg14
F0.08333333333333333
sg15
F0.0
sg16
I00
ssg1
(g5
S'5\x00\x00\x00\x00\x00\x00\x00'
p225
tp226
Rp227
(dp228
g12
F0.0
sg13
F0.0
sg14
F0.0
sg15
F0.0
sg16
I00
ssg1
(g5
S'6\x00\x00\x00\x00\x00\x00\x00'
p229
tp230
Rp231
(dp232
g12
F0.33602771362586603
sg13
F0.25
sg14
F0.1111111111111111
sg15
F0.5625507272426005
sg16
I01
ssg1
(g5
S'7\x00\x00\x00\x00\x00\x00\x00'
p233
tp234
Rp235
(dp236
g12
F0.0
sg13
F0.0
sg14
F0.0
sg15
F0.0
sg16
I00
ssg1
(g5
S'8\x00\x00\x00\x00\x00\x00\x00'
p237
tp238
Rp239
(dp240
g12
F0.0
sg13
F0.0
sg14
F0.0
sg15
F0.0
sg16
I00
ssg1
(g5
S'9\x00\x00\x00\x00\x00\x00\x00'
p241
tp242
Rp243
(dp244
g12
F0.0
sg13
F0.0
sg14
F0.0
sg15
F0.0
sg16
I00
ssg1
(g5
S':\x00\x00\x00\x00\x00\x00\x00'
p245
tp246
Rp247
(dp248
g12
F0.0
sg13
F0.0
sg14
F0.0
sg15
F0.14711110986292059
sg16
I00
ssg1
(g5
S';\x00\x00\x00\x00\x00\x00\x00'
p249
tp250
Rp251
(dp252
g12
F0.4022324865280985
sg13
F0.875
sg14
F0.2222222222222222
sg15
F0.031875665246537906
sg16
I01
ssg1
(g5
S'<\x00\x00\x00\x00\x00\x00\x00'
p253
tp254
Rp255
(dp256
g12
F0.22055427251732102
sg13
F0.29166666666666663
sg14
F0.13194444444444445
sg15
F0.0
sg16
I00
ssg1
(g5
S'=\x00\x00\x00\x00\x00\x00\x00'
p257
tp258
Rp259
(dp260
g12
F0.19399538106235564
sg13
F0.0
sg14
F0.08333333333333333
sg15
F0.0
sg16
I00
ssg1
(g5
S'>\x00\x00\x00\x00\x00\x00\x00'
p261
tp262
Rp263
(dp264
g12
F0.0
sg13
F0.0
sg14
F0.0
sg15
F0.0
sg16
I00
ssg1
(g5
S'?\x00\x00\x00\x00\x00\x00\x00'
p265
tp266
Rp267
(dp268
g12
F0.0
sg13
F0.0
sg14
F0.0
sg15
F0.0
sg16
I00
ssg1
(g5
S'@\x00\x00\x00\x00\x00\x00\x00'
p269
tp270
Rp271
(dp272
g12
F0.5080831408775981
sg13
F0.041666666666666664
sg14
F0.1875
sg15
F0.005437117878175982
sg16
I00
ssg1
(g5
S'A\x00\x00\x00\x00\x00\x00\x00'
p273
tp274
Rp275
(dp276
g12
F0.0
sg13
F0.0
sg14
F0.0
sg15
F0.008020872241772005
sg16
I01
ssg1
(g5
S'B\x00\x00\x00\x00\x00\x00\x00'
p277
tp278
Rp279
(dp280
g12
F0.9045419553502694
sg13
F0.625
sg14
F0.0
sg15
F0.0
sg16
I00
ssg1
(g5
S'C\x00\x00\x00\x00\x00\x00\x00'
p281
tp282
Rp283
(dp284
g12
F0.27675134719014627
sg13
F0.20833333333333331
sg14
F0.2361111111111111
sg15
F0.0
sg16
I00
ssg1
(g5
S'D\x00\x00\x00\x00\x00\x00\x00'
p285
tp286
Rp287
(dp288
g12
F0.049268668206312545
sg13
F0.7083333333333333
sg14
F0.11805555555555555
sg15
F0.0
sg16
I00
ssg1
(g5
S'E\x00\x00\x00\x00\x00\x00\x00'
p289
tp290
Rp291
(dp292
g12
F0.1909160892994611
sg13
F0.20833333333333331
sg14
F0.13194444444444445
sg15
F0.0
sg16
I00
ssg1
(g5
S'F\x00\x00\x00\x00\x00\x00\x00'
p293
tp294
Rp295
(dp296
g12
F0.09930715935334872
sg13
F0.7916666666666666
sg14
F0.38888888888888884
sg15
F0.006838523777561217
sg16
I00
ssg1
(g5
S'G\x00\x00\x00\x00\x00\x00\x00'
p297
tp298
Rp299
(dp300
g12
F0.0
sg13
F0.0
sg14
F0.0
sg15
F0.0
sg16
I00
ssg1
(g5
S'H\x00\x00\x00\x00\x00\x00\x00'
p301
tp302
Rp303
(dp304
g12
F0.0
sg13
F0.0
sg14
F0.0
sg15
F0.013112553395249823
sg16
I00
ssg1
(g5
S'I\x00\x00\x00\x00\x00\x00\x00'
p305
tp306
Rp307
(dp308
g12
F0.0
sg13
F0.0
sg14
F0.0
sg15
F0.003457175675637724
sg16
I00
ssg1
(g5
S'J\x00\x00\x00\x00\x00\x00\x00'
p309
tp310
Rp311
(dp312
g12
F0.0
sg13
F0.0
sg14
F0.0
sg15
F0.0
sg16
I00
ssg1
(g5
S'K\x00\x00\x00\x00\x00\x00\x00'
p313
tp314
Rp315
(dp316
g12
F0.0
sg13
F0.0
sg14
F0.0
sg15
F0.2637816615225615
sg16
I00
ssg1
(g5
S'L\x00\x00\x00\x00\x00\x00\x00'
p317
tp318
Rp319
(dp320
g12
F0.913779830638953
sg13
F0.625
sg14
F0.4236111111111111
sg15
F0.42255055873688113
sg16
I01
ssg1
(g5
S'M\x00\x00\x00\x00\x00\x00\x00'
p321
tp322
Rp323
(dp324
g12
F0.0
sg13
F0.0
sg14
F0.0
sg15
F0.0
sg16
I01
ssg1
(g5
S'N\x00\x00\x00\x00\x00\x00\x00'
p325
tp326
Rp327
(dp328
g12
F0.0
sg13
F0.0
sg14
F0.0
sg15
F0.00435868127424025
sg16
I00
ssg1
(g5
S'O\x00\x00\x00\x00\x00\x00\x00'
p329
tp330
Rp331
(dp332
g12
F0.0
sg13
F0.6666666666666666
sg14
F0.25
sg15
F0.0
sg16
I01
ssg1
(g5
S'P\x00\x00\x00\x00\x00\x00\x00'
p333
tp334
Rp335
(dp336
g12
F0.0
sg13
F0.5833333333333333
sg14
F0.4375
sg15
F0.008658385546702764
sg16
I00
ssg1
(g5
S'Q\x00\x00\x00\x00\x00\x00\x00'
p337
tp338
Rp339
(dp340
g12
F0.0
sg13
F0.0
sg14
F0.0
sg15
F0.0
sg16
I00
ssg1
(g5
S'R\x00\x00\x00\x00\x00\x00\x00'
p341
tp342
Rp343
(dp344
g12
F0.36643571978444955
sg13
F0.0
sg14
F0.18055555555555555
sg15
F0.0
sg16
I00
ssg1
(g5
S'S\x00\x00\x00\x00\x00\x00\x00'
p345
tp346
Rp347
(dp348
g12
F0.0
sg13
F0.0
sg14
F0.0
sg15
F0.00738616736549733
sg16
I00
ssg1
(g5
S'T\x00\x00\x00\x00\x00\x00\x00'
p349
tp350
Rp351
(dp352
g12
F0.0
sg13
F0.0
sg14
F0.0
sg15
F0.0
sg16
I00
ssg1
(g5
S'U\x00\x00\x00\x00\x00\x00\x00'
p353
tp354
Rp355
(dp356
g12
F0.0
sg13
F0.0
sg14
F0.0
sg15
F0.0
sg16
I00
ssg1
(g5
S'V\x00\x00\x00\x00\x00\x00\x00'
p357
tp358
Rp359
(dp360
g12
F0.5858352578906851
sg13
F0.0
sg14
F0.0
sg15
F0.0
sg16
I00
ssg1
(g5
S'W\x00\x00\x00\x00\x00\x00\x00'
p361
tp362
Rp363
(dp364
g12
F0.5515781370284835
sg13
F0.08333333333333333
sg14
F0.0
sg15
F0.0
sg16
I00
ssg1
(g5
S'X\x00\x00\x00\x00\x00\x00\x00'
p365
tp366
Rp367
(dp368
g12
F0.6712856043110085
sg13
F0.0
sg14
F0.34027777777777773
sg15
F0.1448784090813349
sg16
I00
ssg1
(g5
S'Y\x00\x00\x00\x00\x00\x00\x00'
p369
tp370
Rp371
(dp372
g12
F0.0
sg13
F0.0
sg14
F0.0
sg15
F0.001516551474284623
sg16
I00
ssg1
(g5
S'Z\x00\x00\x00\x00\x00\x00\x00'
p373
tp374
Rp375
(dp376
g12
F0.3441108545034642
sg13
F0.041666666666666664
sg14
F0.09027777777777778
sg15
F0.0
sg16
I00
ssg1
(g5
S'[\x00\x00\x00\x00\x00\x00\x00'
p377
tp378
Rp379
(dp380
g12
F0.9064665127020785
sg13
F0.0
sg14
F0.3333333333333333
sg15
F0.8350946861721398
sg16
I00
ssg1
(g5
S'\\\x00\x00\x00\x00\x00\x00\x00'
p381
tp382
Rp383
(dp384
g12
F0.0
sg13
F0.0
sg14
F0.0
sg15
F0.0
sg16
I00
ssg1
(g5
S']\x00\x00\x00\x00\x00\x00\x00'
p385
tp386
Rp387
(dp388
g12
F0.31062355658198615
sg13
F0.041666666666666664
sg14
F0.20138888888888887
sg15
F0.004886665861583785
sg16
I00
ssg1
(g5
S'^\x00\x00\x00\x00\x00\x00\x00'
p389
tp390
Rp391
(dp392
g12
F0.0
sg13
F0.0
sg14
F0.0
sg15
F0.0
sg16
I00
ssg1
(g5
S'_\x00\x00\x00\x00\x00\x00\x00'
p393
tp394
Rp395
(dp396
g12
F0.08929946112394149
sg13
F0.0
sg14
F0.19444444444444442
sg15
F0.0
sg16
I00
ssg1
(g5
S'`\x00\x00\x00\x00\x00\x00\x00'
p397
tp398
Rp399
(dp400
g12
F0.25866050808314084
sg13
F0.0
sg14
F0.13194444444444445
sg15
F0.0
sg16
I00
ssg1
(g5
S'a\x00\x00\x00\x00\x00\x00\x00'
p401
tp402
Rp403
(dp404
g12
F0.0
sg13
F0.0
sg14
F0.0
sg15
F0.003962692833732598
sg16
I00
ssg1
(g5
S'b\x00\x00\x00\x00\x00\x00\x00'
p405
tp406
Rp407
(dp408
g12
F0.05234795996920708
sg13
F0.0
sg14
F0.1111111111111111
sg15
F0.0026595819373102553
sg16
I00
ssg1
(g5
S'c\x00\x00\x00\x00\x00\x00\x00'
p409
tp410
Rp411
(dp412
g12
F0.8437259430331023
sg13
F0.08333333333333333
sg14
F0.3125
sg15
F0.0009267814565072696
sg16
I00
ssg1
(g5
S'd\x00\x00\x00\x00\x00\x00\x00'
p413
tp414
Rp415
(dp416
g12
F0.0
sg13
F0.0
sg14
F0.0
sg15
F0.0
sg16
I00
ssg1
(g5
S'e\x00\x00\x00\x00\x00\x00\x00'
p417
tp418
Rp419
(dp420
g12
F0.45573518090839105
sg13
F0.625
sg14
F0.3611111111111111
sg15
F0.0027297926537123212
sg16
I00
ssg1
(g5
S'f\x00\x00\x00\x00\x00\x00\x00'
p421
tp422
Rp423
(dp424
g12
F0.0
sg13
F0.0
sg14
F0.0
sg15
F0.0004942834434705438
sg16
I00
ssg1
(g5
S'g\x00\x00\x00\x00\x00\x00\x00'
p425
tp426
Rp427
(dp428
g12
F0.0
sg13
F0.0
sg14
F0.0
sg15
F0.0
sg16
I00
ssg1
(g5
S'h\x00\x00\x00\x00\x00\x00\x00'
p429
tp430
Rp431
(dp432
g12
F0.0
sg13
F0.0
sg14
F0.0
sg15
F0.0
sg16
I00
ssg1
(g5
S'i\x00\x00\x00\x00\x00\x00\x00'
p433
tp434
Rp435
(dp436
g12
F0.34565050038491146
sg13
F0.0
sg14
F0.46527777777777773
sg15
F0.0
sg16
I00
ssg1
(g5
S'j\x00\x00\x00\x00\x00\x00\x00'
p437
tp438
Rp439
(dp440
g12
F0.47652040030792914
sg13
F0.0
sg14
F0.0
sg15
F0.00218495749443229
sg16
I00
ssg1
(g5
S'k\x00\x00\x00\x00\x00\x00\x00'
p441
tp442
Rp443
(dp444
g12
F0.022324865280985373
sg13
F0.041666666666666664
sg14
F0.1111111111111111
sg15
F0.0
sg16
I00
ssg1
(g5
S'l\x00\x00\x00\x00\x00\x00\x00'
p445
tp446
Rp447
(dp448
g12
F0.25134719014626633
sg13
F0.0
sg14
F0.18055555555555555
sg15
F0.0
sg16
I00
ssg1
(g5
S'm\x00\x00\x00\x00\x00\x00\x00'
p449
tp450
Rp451
(dp452
g12
F0.0
sg13
F0.0
sg14
F0.0
sg15
F0.0
sg16
I00
ssg1
(g5
S'n\x00\x00\x00\x00\x00\x00\x00'
p453
tp454
Rp455
(dp456
g12
F0.6431870669745958
sg13
F0.0
sg14
F0.0
sg15
F0.0
sg16
I00
ssg1
(g5
S'o\x00\x00\x00\x00\x00\x00\x00'
p457
tp458
Rp459
(dp460
g12
F0.0
sg13
F0.0
sg14
F0.0
sg15
F0.5674486268188086
sg16
I00
ssg1
(g5
S'p\x00\x00\x00\x00\x00\x00\x00'
p461
tp462
Rp463
(dp464
g12
F0.3483448806774442
sg13
F0.16666666666666666
sg14
F0.125
sg15
F0.4910228578008318
sg16
I01
ssg1
(g5
S'q\x00\x00\x00\x00\x00\x00\x00'
p465
tp466
Rp467
(dp468
g12
F0.5111624326404927
sg13
F0.0
sg14
F0.5694444444444444
sg15
F0.005476435879361139
sg16
I01
ssg1
(g5
S'r\x00\x00\x00\x00\x00\x00\x00'
p469
tp470
Rp471
(dp472
g12
F0.0
sg13
F0.0
sg14
F0.0
sg15
F0.0
sg16
I00
ssg1
(g5
S's\x00\x00\x00\x00\x00\x00\x00'
p473
tp474
Rp475
(dp476
g12
F0.0
sg13
F0.0
sg14
F0.0
sg15
F0.0
sg16
I00
ssg1
(g5
S't\x00\x00\x00\x00\x00\x00\x00'
p477
tp478
Rp479
(dp480
g12
F0.0
sg13
F0.0
sg14
F0.0
sg15
F0.003344838529394418
sg16
I00
ssg1
(g5
S'u\x00\x00\x00\x00\x00\x00\x00'
p481
tp482
Rp483
(dp484
g12
F0.0
sg13
F0.0
sg14
F0.0
sg15
F0.0019799422025382576
sg16
I00
ssg1
(g5
S'v\x00\x00\x00\x00\x00\x00\x00'
p485
tp486
Rp487
(dp488
g12
F0.0
sg13
F0.25
sg14
F0.9444444444444444
sg15
F0.006743037203254407
sg16
I00
ssg1
(g5
S'w\x00\x00\x00\x00\x00\x00\x00'
p489
tp490
Rp491
(dp492
g12
F0.08660508083140878
sg13
F0.5833333333333333
sg14
F0.2708333333333333
sg15
F0.0
sg16
I01
ssg1
(g5
S'x\x00\x00\x00\x00\x00\x00\x00'
p493
tp494
Rp495
(dp496
g12
F0.23595073133179367
sg13
F0.75
sg14
F0.1736111111111111
sg15
F0.0
sg16
I00
ssg1
(g5
S'y\x00\x00\x00\x00\x00\x00\x00'
p497
tp498
Rp499
(dp500
g12
F0.0
sg13
F0.9583333333333333
sg14
F0.6388888888888888
sg15
F0.0
sg16
I00
ssg1
(g5
S'z\x00\x00\x00\x00\x00\x00\x00'
p501
tp502
Rp503
(dp504
g12
F0.0
sg13
F0.0
sg14
F0.75
sg15
F0.062128058729860054
sg16
I01
ssg1
(g5
S'{\x00\x00\x00\x00\x00\x00\x00'
p505
tp506
Rp507
(dp508
g12
F0.0
sg13
F0.0
sg14
F0.0
sg15
F1.0
sg16
I00
ssg1
(g5
S'|\x00\x00\x00\x00\x00\x00\x00'
p509
tp510
Rp511
(dp512
g12
F0.0
sg13
F0.0
sg14
F0.0
sg15
F0.0004549654422853869
sg16
I00
ssg1
(g5
S'}\x00\x00\x00\x00\x00\x00\x00'
p513
tp514
Rp515
(dp516
g12
F0.0
sg13
F0.5416666666666666
sg14
F0.2638888888888889
sg15
F0.3120782091212146
sg16
I00
ssg1
(g5
S'~\x00\x00\x00\x00\x00\x00\x00'
p517
tp518
Rp519
(dp520
g12
F0.20515781370284833
sg13
F0.0
sg14
F0.20138888888888887
sg15
F0.0
sg16
I00
ssg1
(g5
S'\x7f\x00\x00\x00\x00\x00\x00\x00'
p521
tp522
Rp523
(dp524
g12
F0.10238645111624325
sg13
F0.0
sg14
F0.2847222222222222
sg15
F0.0
sg16
I00
ssg1
(g5
S'\x80\x00\x00\x00\x00\x00\x00\x00'
p525
tp526
Rp527
(dp528
g12
F0.1770592763664357
sg13
F0.4583333333333333
sg14
F0.13194444444444445
sg15
F0.4270356193006451
sg16
I00
ssg1
(g5
S'\x81\x00\x00\x00\x00\x00\x00\x00'
p529
tp530
Rp531
(dp532
g12
F0.04272517321016166
sg13
F0.0
sg14
F0.125
sg15
F0.0
sg16
I00
ssg1
(g5
S'\x82\x00\x00\x00\x00\x00\x00\x00'
p533
tp534
Rp535
(dp536
g12
F0.0
sg13
F0.0
sg14
F0.0
sg15
F0.0
sg16
I00
ssg1
(g5
S'\x83\x00\x00\x00\x00\x00\x00\x00'
p537
tp538
Rp539
(dp540
g12
F0.0
sg13
F0.0
sg14
F0.0
sg15
F0.0
sg16
I00
ssg1
(g5
S'\x84\x00\x00\x00\x00\x00\x00\x00'
p541
tp542
Rp543
(dp544
g12
F0.25827559661277905
sg13
F0.0
sg14
F0.0
sg15
F5.61685731216527e-06
sg16
I00
ssg1
(g5
S'\x85\x00\x00\x00\x00\x00\x00\x00'
p545
tp546
Rp547
(dp548
g12
F0.0
sg13
F0.0
sg14
F0.0
sg15
F0.0
sg16
I00
ssg1
(g5
S'\x86\x00\x00\x00\x00\x00\x00\x00'
p549
tp550
Rp551
(dp552
g12
F0.15396458814472672
sg13
F0.29166666666666663
sg14
F0.20833333333333331
sg15
F0.004002010834917755
sg16
I00
ssg1
(g5
S'\x87\x00\x00\x00\x00\x00\x00\x00'
p553
tp554
Rp555
(dp556
g12
F0.0
sg13
F0.0
sg14
F0.0
sg15
F0.0
sg16
I00
ssg1
(g5
S'\x88\x00\x00\x00\x00\x00\x00\x00'
p557
tp558
Rp559
(dp560
g12
F0.0
sg13
F0.0
sg14
F0.0
sg15
F0.0
sg16
I00
ssg1
(g5
S'\x89\x00\x00\x00\x00\x00\x00\x00'
p561
tp562
Rp563
(dp564
g12
F0.0
sg13
F1.0
sg14
F0.0
sg15
F0.8454100446259313
sg16
I00
ssg1
(g5
S'\x8a\x00\x00\x00\x00\x00\x00\x00'
p565
tp566
Rp567
(dp568
g12
F0.0
sg13
F0.0
sg14
F0.0
sg15
F0.0
sg16
I00
ssg1
(g5
S'\x8b\x00\x00\x00\x00\x00\x00\x00'
p569
tp570
Rp571
(dp572
g12
F0.0
sg13
F0.0
sg14
F0.0
sg15
F0.0
sg16
I00
ssg1
(g5
S'\x8c\x00\x00\x00\x00\x00\x00\x00'
p573
tp574
Rp575
(dp576
g12
F0.0
sg13
F0.0
sg14
F0.0
sg15
F0.5324303299061142
sg16
I00
ssg1
(g5
S'\x8d\x00\x00\x00\x00\x00\x00\x00'
p577
tp578
Rp579
(dp580
g12
F0.0
sg13
F0.0
sg14
F0.0
sg15
F0.0
sg16
I00
ssg1
(g5
S'\x8e\x00\x00\x00\x00\x00\x00\x00'
p581
tp582
Rp583
(dp584
g12
F0.0
sg13
F0.0
sg14
F0.0
sg15
F0.41550701966742587
sg16
I01
ssg1
(g5
S'\x8f\x00\x00\x00\x00\x00\x00\x00'
p585
tp586
Rp587
(dp588
g12
F0.0
sg13
F0.0
sg14
F0.0
sg15
F0.0
sg16
I00
ss.